target datalayout = "e-m:e-p270:32:32-p271:32:32-p272:64:64-i64:64-i128:128-f80:128-n8:16:32:64-S128"
target triple = "x86_64-pc-linux-gnu"

%struct.psa_key_slot_t = type { %struct.psa_key_attributes_s, i32, i8, %union.anon, %struct.key_data }
%struct.psa_key_attributes_s = type { i16, i16, i32, %struct.psa_key_policy_s, i32 }
%struct.psa_key_policy_s = type { i32, i32, i32 }
%union.anon = type { %struct.anon.0 }
%struct.anon.0 = type { i64 }
%struct.key_data = type { ptr, i64 }

; Function Attrs: nounwind uwtable
define hidden i32 @psa_remove_key_data_from_memory(ptr noundef %0) #0 {
  %2 = alloca ptr, align 8
  store ptr %0, ptr %2, align 8, !tbaa !21
  %3 = load ptr, ptr %2, align 8, !tbaa !21
  %4 = getelementptr inbounds nuw %struct.psa_key_slot_t, ptr %3, i32 0, i32 4
  %5 = getelementptr inbounds nuw %struct.key_data, ptr %4, i32 0, i32 0
  %6 = load ptr, ptr %5, align 8, !tbaa !22
  %7 = icmp ne ptr %6, null
  br i1 %7, label %8, label %17

8:                                                ; preds = %1
  %9 = load ptr, ptr %2, align 8, !tbaa !21
  %10 = getelementptr inbounds nuw %struct.psa_key_slot_t, ptr %9, i32 0, i32 4
  %11 = getelementptr inbounds nuw %struct.key_data, ptr %10, i32 0, i32 0
  %12 = load ptr, ptr %11, align 8, !tbaa !22
  %13 = load ptr, ptr %2, align 8, !tbaa !21
  %14 = getelementptr inbounds nuw %struct.psa_key_slot_t, ptr %13, i32 0, i32 4
  %15 = getelementptr inbounds nuw %struct.key_data, ptr %14, i32 0, i32 1
  %16 = load i64, ptr %15, align 8, !tbaa !28
  call void @mbedtls_zeroize_and_free(ptr noundef %12, i64 noundef %16)
  br label %17

17:                                               ; preds = %8, %1
  %18 = load ptr, ptr %2, align 8, !tbaa !21
  %19 = getelementptr inbounds nuw %struct.psa_key_slot_t, ptr %18, i32 0, i32 4
  %20 = getelementptr inbounds nuw %struct.key_data, ptr %19, i32 0, i32 0
  store ptr null, ptr %20, align 8, !tbaa !22
  %21 = load ptr, ptr %2, align 8, !tbaa !21
  %22 = getelementptr inbounds nuw %struct.psa_key_slot_t, ptr %21, i32 0, i32 4
  %23 = getelementptr inbounds nuw %struct.key_data, ptr %22, i32 0, i32 1
  store i64 0, ptr %23, align 8, !tbaa !28
  ret i32 0
}

; Function Attrs: nounwind uwtable
define hidden i32 @psa_wipe_key_slot(ptr noundef %0) #0 {
  %2 = alloca ptr, align 8
  %3 = alloca i32, align 4
  %4 = alloca i64, align 8
  store ptr %0, ptr %2, align 8, !tbaa !21
  call void @llvm.lifetime.start.p0(i64 4, ptr %3) #8
  %5 = load ptr, ptr %2, align 8, !tbaa !21
  %6 = call i32 @psa_remove_key_data_from_memory(ptr noundef %5)
  store i32 %6, ptr %3, align 4, !tbaa !3
  %7 = load ptr, ptr %2, align 8, !tbaa !21
  %8 = getelementptr inbounds nuw %struct.psa_key_slot_t, ptr %7, i32 0, i32 1
  %9 = load i32, ptr %8, align 8, !tbaa !35
  switch i32 %9, label %27 [
    i32 2, label %10
    i32 3, label %10
    i32 1, label %18
    i32 0, label %26
  ]

10:                                               ; preds = %1, %1
  %11 = load ptr, ptr %2, align 8, !tbaa !21
  %12 = getelementptr inbounds nuw %struct.psa_key_slot_t, ptr %11, i32 0, i32 3
  %13 = getelementptr inbounds nuw %struct.anon.0, ptr %12, i32 0, i32 0
  %14 = load i64, ptr %13, align 8, !tbaa !17
  %15 = icmp ne i64 %14, 1
  br i1 %15, label %16, label %17

16:                                               ; preds = %10
  store i32 -151, ptr %3, align 4, !tbaa !3
  br label %17

17:                                               ; preds = %16, %10
  br label %28

18:                                               ; preds = %1
  %19 = load ptr, ptr %2, align 8, !tbaa !21
  %20 = getelementptr inbounds nuw %struct.psa_key_slot_t, ptr %19, i32 0, i32 3
  %21 = getelementptr inbounds nuw %struct.anon.0, ptr %20, i32 0, i32 0
  %22 = load i64, ptr %21, align 8, !tbaa !17
  %23 = icmp ne i64 %22, 0
  br i1 %23, label %24, label %25

24:                                               ; preds = %18
  store i32 -151, ptr %3, align 4, !tbaa !3
  br label %25

25:                                               ; preds = %24, %18
  br label %28

26:                                               ; preds = %1
  store i32 -151, ptr %3, align 4, !tbaa !3
  br label %28

27:                                               ; preds = %1
  store i32 -151, ptr %3, align 4, !tbaa !3
  br label %28

28:                                               ; preds = %27, %26, %25, %17
  call void @llvm.lifetime.start.p0(i64 8, ptr %4) #8
  %29 = load ptr, ptr %2, align 8, !tbaa !21
  %30 = getelementptr inbounds nuw %struct.psa_key_slot_t, ptr %29, i32 0, i32 2
  %31 = load i8, ptr %30, align 4, !tbaa !36
  %32 = zext i8 %31 to i64
  store i64 %32, ptr %4, align 8, !tbaa !20
  %33 = load ptr, ptr %2, align 8, !tbaa !21
  call void @llvm.memset.p0.i64(ptr align 8 %33, i8 0, i64 56, i1 false)
  %34 = load i32, ptr %3, align 4, !tbaa !3
  %35 = icmp eq i32 %34, 0
  br i1 %35, label %36, label %40

36:                                               ; preds = %28
  %37 = load i64, ptr %4, align 8, !tbaa !20
  %38 = load ptr, ptr %2, align 8, !tbaa !21
  %39 = call i32 @psa_free_key_slot(i64 noundef %37, ptr noundef %38)
  store i32 %39, ptr %3, align 4, !tbaa !3
  br label %40

40:                                               ; preds = %36, %28
  %41 = load i32, ptr %3, align 4, !tbaa !3
  call void @llvm.lifetime.end.p0(i64 8, ptr %4) #8
  call void @llvm.lifetime.end.p0(i64 4, ptr %3) #8
  ret i32 %41
}