; Function Attrs: nounwind uwtable
define hidden i32 @psa_wipe_key_slot(ptr noundef initializes((0, 24), (29, 32)) %0) local_unnamed_addr #7 {
  %2 = getelementptr inbounds nuw i8, ptr %0, i64 40
  %3 = load ptr, ptr %2, align 8, !tbaa !16
  %.not.i = icmp eq ptr %3, null
  br i1 %.not.i, label %psa_remove_key_data_from_memory.exit, label %4

4:                                                ; preds = %1
  %5 = getelementptr inbounds nuw i8, ptr %0, i64 48
  %6 = load i64, ptr %5, align 8, !tbaa !23
  tail call void @mbedtls_zeroize_and_free(ptr noundef nonnull %3, i64 noundef %6) #22
  br label %psa_remove_key_data_from_memory.exit

psa_remove_key_data_from_memory.exit:             ; preds = %1, %4
  %7 = getelementptr inbounds nuw i8, ptr %0, i64 24
  %8 = load i32, ptr %7, align 8, !tbaa !26
  switch i32 %8, label %.thread [
    i32 2, label %9
    i32 3, label %9
    i32 1, label %14
  ]

.thread:                                          ; preds = %psa_remove_key_data_from_memory.exit
  tail call void @llvm.memset.p0.i64(ptr noundef nonnull align 8 dereferenceable(56) %0, i8 0, i64 56, i1 false)
  br label %23

9:                                                ; preds = %psa_remove_key_data_from_memory.exit, %psa_remove_key_data_from_memory.exit
  %10 = getelementptr inbounds nuw i8, ptr %0, i64 32
  %11 = load i64, ptr %10, align 8, !tbaa !27
  %.not9 = icmp eq i64 %11, 1
  %12 = getelementptr inbounds nuw i8, ptr %0, i64 28
  %13 = load i8, ptr %12, align 4, !tbaa !28
  tail call void @llvm.memset.p0.i64(ptr noundef nonnull align 8 dereferenceable(56) %0, i8 0, i64 56, i1 false)
  br i1 %.not9, label %19, label %23

14:                                               ; preds = %psa_remove_key_data_from_memory.exit
  %15 = getelementptr inbounds nuw i8, ptr %0, i64 32
  %16 = load i64, ptr %15, align 8, !tbaa !27
  %.not = icmp eq i64 %16, 0
  %17 = getelementptr inbounds nuw i8, ptr %0, i64 28
  %18 = load i8, ptr %17, align 4, !tbaa !28
  tail call void @llvm.memset.p0.i64(ptr noundef nonnull align 8 dereferenceable(56) %0, i8 0, i64 56, i1 false)
  br i1 %.not, label %19, label %23

19:                                               ; preds = %9, %14
  %20 = phi i8 [ %13, %9 ], [ %18, %14 ]
  %21 = zext i8 %20 to i64
  %22 = tail call i32 @psa_free_key_slot(i64 noundef %21, ptr noundef nonnull %0) #22
  br label %23

23:                                               ; preds = %9, %.thread, %19, %14
  %.1 = phi i32 [ %22, %19 ], [ -151, %14 ], [ -151, %.thread ], [ -151, %9 ]
  ret i32 %.1
}